; Function Attrs: mustprogress nounwind uwtable
define hidden void @_ZN18JvmtiModuleClosure9do_moduleEP11ModuleEntry(ptr nocapture noundef readonly %0) #0 align 2 {
  %2 = load ptr, ptr %0, align 8, !noalias !67
  %3 = icmp eq ptr %2, null
  br i1 %3, label %_ZNK9OopHandle7resolveEv.exit.thread, label %_ZNK9OopHandle7resolveEv.exit

_ZNK9OopHandle7resolveEv.exit:                    ; preds = %1
  %4 = load ptr, ptr @_ZN14AccessInternal15RuntimeDispatchILm548932EP7oopDescLNS_11BarrierTypeE2EE10_load_funcE, align 8
  %5 = tail call noundef ptr %4(ptr noundef nonnull %2) #18
  %.not = icmp eq ptr %5, null
  br i1 %.not, label %_ZNK9OopHandle7resolveEv.exit.thread, label %7

_ZNK9OopHandle7resolveEv.exit.thread:             ; preds = %1, %_ZNK9OopHandle7resolveEv.exit
  %6 = load ptr, ptr @g_assert_poison, align 8
  store i8 88, ptr %6, align 1
  tail call void (ptr, i32, ptr, ptr, ...) @_Z15report_vm_errorPKciS0_S0_z(ptr noundef nonnull @.str.4, i32 noundef 2326, ptr noundef nonnull @.str.5, ptr noundef nonnull @.str.6) #20
  unreachable

7:                                                ; preds = %_ZNK9OopHandle7resolveEv.exit
  %8 = load ptr, ptr @_ZN18JvmtiModuleClosure4_tblE, align 8
  %9 = load i32, ptr %8, align 8
  %10 = getelementptr inbounds i8, ptr %8, i64 4
  %11 = load i32, ptr %10, align 4
  %12 = icmp eq i32 %9, %11
  br i1 %12, label %13, label %_ZN26GrowableArrayWithAllocatorI9OopHandle13GrowableArrayIS0_EE4pushERKS0_.exit

13:                                               ; preds = %7
  %14 = add nsw i32 %9, 1
  %15 = icmp sgt i32 %9, -1
  %16 = xor i32 %9, -2147483648
  %17 = and i32 %16, %14
  %18 = icmp eq i32 %17, 0
  %19 = and i1 %15, %18
  %20 = tail call range(i32 0, 33) i32 @llvm.ctlz.i32(i32 %14, i1 true)
  %21 = sub nuw nsw i32 32, %20
  %22 = shl nuw i32 1, %21
  %.0.i.i.i.i.i = select i1 %19, i32 %14, i32 %22
  tail call void @_ZN26GrowableArrayWithAllocatorI9OopHandle13GrowableArrayIS0_EE9expand_toEi(ptr noundef nonnull align 8 dereferenceable(16) %8, i32 noundef %.0.i.i.i.i.i)
  %.pre.i.i = load i32, ptr %8, align 8
  br label %_ZN26GrowableArrayWithAllocatorI9OopHandle13GrowableArrayIS0_EE4pushERKS0_.exit

_ZN26GrowableArrayWithAllocatorI9OopHandle13GrowableArrayIS0_EE4pushERKS0_.exit: ; preds = %7, %13
  %23 = phi i32 [ %.pre.i.i, %13 ], [ %9, %7 ]
  %24 = add nsw i32 %23, 1
  store i32 %24, ptr %8, align 8
  %25 = getelementptr inbounds i8, ptr %8, i64 8
  %26 = load ptr, ptr %25, align 8
  %27 = sext i32 %23 to i64
  %28 = getelementptr inbounds %class.OopHandle, ptr %26, i64 %27
  store ptr %2, ptr %28, align 8
  ret void
}